; Function Attrs: nounwind uwtable
define ptr @l___private_Lake_Util_Name_0__Lean_Name_cmp_match__1_splitter___rarg(i8 noundef zeroext %0, ptr noundef %1, ptr noundef %2) local_unnamed_addr #0 {
  %4 = icmp eq i8 %0, 1
  br i1 %4, label %5, label %lean_dec.exit

5:                                                ; preds = %3
  %6 = ptrtoint ptr %2 to i64
  %7 = and i64 %6, 1
  %.not = icmp eq i64 %7, 0
  br i1 %.not, label %8, label %lean_dec.exit10

8:                                                ; preds = %5
  %9 = load i32, ptr %2, align 4, !tbaa !4
  %10 = icmp sgt i32 %9, 1
  br i1 %10, label %11, label %13, !prof !9

11:                                               ; preds = %8
  %12 = add nsw i32 %9, -1
  store i32 %12, ptr %2, align 4, !tbaa !4
  br label %lean_dec.exit10

13:                                               ; preds = %8
  %.not.i = icmp eq i32 %9, 0
  br i1 %.not.i, label %lean_dec.exit10, label %14

14:                                               ; preds = %13
  tail call void @lean_dec_ref_cold(ptr noundef nonnull %2) #5
  br label %lean_dec.exit10

lean_dec.exit10:                                  ; preds = %14, %13, %11, %5
  %15 = ptrtoint ptr %1 to i64
  %16 = and i64 %15, 1
  %.not15 = icmp eq i64 %16, 0
  br i1 %.not15, label %17, label %lean_inc.exit

17:                                               ; preds = %lean_dec.exit10
  %.val.i = load i32, ptr %1, align 4, !tbaa !4
  %18 = icmp sgt i32 %.val.i, 0
  br i1 %18, label %19, label %21, !prof !9

19:                                               ; preds = %17
  %20 = add nuw i32 %.val.i, 1
  store i32 %20, ptr %1, align 4, !tbaa !4
  br label %lean_inc.exit

21:                                               ; preds = %17
  %.not.i14 = icmp eq i32 %.val.i, 0
  br i1 %.not.i14, label %lean_inc.exit, label %22

22:                                               ; preds = %21
  tail call void @lean_inc_ref_cold(ptr noundef nonnull %1) #5
  br label %lean_inc.exit

lean_dec.exit:                                    ; preds = %3
  %23 = zext i8 %0 to i64
  %24 = shl nuw nsw i64 %23, 1
  %25 = or disjoint i64 %24, 1
  %26 = inttoptr i64 %25 to ptr
  %27 = tail call ptr @lean_apply_2(ptr noundef %2, ptr noundef nonnull %26, ptr noundef nonnull inttoptr (i64 1 to ptr)) #5
  br label %lean_inc.exit

lean_inc.exit:                                    ; preds = %lean_dec.exit10, %19, %21, %22, %lean_dec.exit
  %.0 = phi ptr [ %27, %lean_dec.exit ], [ %1, %22 ], [ %1, %21 ], [ %1, %19 ], [ %1, %lean_dec.exit10 ]
  ret ptr %.0
}